target datalayout = "e-m:e-p270:32:32-p271:32:32-p272:64:64-i64:64-i128:128-f80:128-n8:16:32:64-S128"
target triple = "x86_64-pc-linux-gnu"

%struct.AVBSFContext = type { ptr, ptr, ptr, ptr, ptr, %struct.AVRational, %struct.AVRational }
%struct.AVRational = type { i32, i32 }
%struct.DTS2PTSContext = type { ptr, ptr, ptr, ptr, ptr, ptr, i64, ptr, %struct.CodedBitstreamFragment, %union.anon, i32, i32, i32 }
%struct.CodedBitstreamFragment = type { ptr, i64, i64, ptr, i32, i32, ptr }
%union.anon = type { %struct.DTS2PTSH264Context }
%struct.DTS2PTSH264Context = type { %struct.H264POCContext, %struct.SPS, i32, i32, i32, i32 }
%struct.H264POCContext = type { i32, i32, i32, [2 x i32], i32, i32, i32, i32, i32, i32 }
%struct.SPS = type { i32, i32, i32, i32, i32, i32, i32, i32, i32, i32, i32, i32, i32, i32, i32, i32, i32, i32, i32, i32, i32, i32, i32, i32, i32, %struct.H2645VUI, i32, i32, i32, i32, [256 x i32], i32, i32, i32, i32, i16, [6 x [16 x i8]], [6 x [64 x i8]], i32, i32, i32, i32, i32, i32, [32 x i32], [32 x i32], i32, i32, i32, i32, i32, i32, i32, i32, [4096 x i8], i64 }
%struct.H2645VUI = type { %struct.AVRational, i32, i32, i32, i32, i32, i32, i32, i32, i32, i32, i32, i32, i32, i32, i32 }
%struct.anon = type { i32, ptr, ptr, ptr, i64 }
%struct.AVCodecParameters = type { i32, i32, i32, ptr, i32, ptr, i32, i32, i64, i32, i32, i32, i32, i32, i32, %struct.AVRational, %struct.AVRational, i32, i32, i32, i32, i32, i32, i32, %struct.AVChannelLayout, i32, i32, i32, i32, i32, i32 }
%struct.AVChannelLayout = type { i32, i32, %union.anon.0, ptr }
%union.anon.0 = type { i64 }

@.str.1 = private unnamed_addr constant [30 x i8] c"Assertion %s failed at %s:%d\0A\00", align 1
@.str.2 = private unnamed_addr constant [26 x i8] c"s->filter && s->fifo_size\00", align 1
@.str.3 = private unnamed_addr constant [25 x i8] c"libavcodec/bsf/dts2pts.c\00", align 1
@.str.4 = private unnamed_addr constant [28 x i8] c"Failed to parse extradata.\0A\00", align 1
@func_tab = internal constant [1 x { i32, [4 x i8], ptr, ptr, ptr, i64 }] [{ i32, [4 x i8], ptr, ptr, ptr, i64 } { i32 27, [4 x i8] zeroinitializer, ptr @h264_init, ptr @h264_filter, ptr @h264_flush, i64 64 }], align 16

; Function Attrs: nounwind uwtable
define internal i32 @dts2pts_init(ptr noundef %0) #0 {
  %2 = alloca i32, align 4
  %3 = alloca ptr, align 8
  %4 = alloca ptr, align 8
  %5 = alloca ptr, align 8
  %6 = alloca i32, align 4
  %7 = alloca i32, align 4
  %8 = alloca i32, align 4
  store ptr %0, ptr %3, align 8, !tbaa !4
  call void @llvm.lifetime.start.p0(i64 8, ptr %4) #7
  %9 = load ptr, ptr %3, align 8, !tbaa !4
  %10 = getelementptr inbounds nuw %struct.AVBSFContext, ptr %9, i32 0, i32 2
  %11 = load ptr, ptr %10, align 8, !tbaa !9
  store ptr %11, ptr %4, align 8, !tbaa !16
  call void @llvm.lifetime.start.p0(i64 8, ptr %5) #7
  %12 = load ptr, ptr %4, align 8, !tbaa !16
  %13 = getelementptr inbounds nuw %struct.DTS2PTSContext, ptr %12, i32 0, i32 8
  store ptr %13, ptr %5, align 8, !tbaa !18
  call void @llvm.lifetime.start.p0(i64 4, ptr %6) #7
  call void @llvm.lifetime.start.p0(i64 4, ptr %7) #7
  store i32 0, ptr %6, align 4, !tbaa !20
  br label %14

14:                                               ; preds = %60, %1
  %15 = load i32, ptr %6, align 4, !tbaa !20
  %16 = sext i32 %15 to i64
  %17 = icmp ult i64 %16, 1
  br i1 %17, label %18, label %63

18:                                               ; preds = %14
  %19 = load i32, ptr %6, align 4, !tbaa !20
  %20 = sext i32 %19 to i64
  %21 = getelementptr inbounds [1 x %struct.anon], ptr @func_tab, i64 0, i64 %20
  %22 = getelementptr inbounds nuw %struct.anon, ptr %21, i32 0, i32 0
  %23 = load i32, ptr %22, align 8, !tbaa !21
  %24 = load ptr, ptr %3, align 8, !tbaa !4
  %25 = getelementptr inbounds nuw %struct.AVBSFContext, ptr %24, i32 0, i32 3
  %26 = load ptr, ptr %25, align 8, !tbaa !24
  %27 = getelementptr inbounds nuw %struct.AVCodecParameters, ptr %26, i32 0, i32 1
  %28 = load i32, ptr %27, align 4, !tbaa !25
  %29 = icmp eq i32 %23, %28
  br i1 %29, label %30, label %59

30:                                               ; preds = %18
  %31 = load i32, ptr %6, align 4, !tbaa !20
  %32 = sext i32 %31 to i64
  %33 = getelementptr inbounds [1 x %struct.anon], ptr @func_tab, i64 0, i64 %32
  %34 = getelementptr inbounds nuw %struct.anon, ptr %33, i32 0, i32 1
  %35 = load ptr, ptr %34, align 8, !tbaa !30
  %36 = load ptr, ptr %4, align 8, !tbaa !16
  %37 = getelementptr inbounds nuw %struct.DTS2PTSContext, ptr %36, i32 0, i32 3
  store ptr %35, ptr %37, align 8, !tbaa !31
  %38 = load i32, ptr %6, align 4, !tbaa !20
  %39 = sext i32 %38 to i64
  %40 = getelementptr inbounds [1 x %struct.anon], ptr @func_tab, i64 0, i64 %39
  %41 = getelementptr inbounds nuw %struct.anon, ptr %40, i32 0, i32 2
  %42 = load ptr, ptr %41, align 8, !tbaa !40
  %43 = load ptr, ptr %4, align 8, !tbaa !16
  %44 = getelementptr inbounds nuw %struct.DTS2PTSContext, ptr %43, i32 0, i32 4
  store ptr %42, ptr %44, align 8, !tbaa !41
  %45 = load i32, ptr %6, align 4, !tbaa !20
  %46 = sext i32 %45 to i64
  %47 = getelementptr inbounds [1 x %struct.anon], ptr @func_tab, i64 0, i64 %46
  %48 = getelementptr inbounds nuw %struct.anon, ptr %47, i32 0, i32 3
  %49 = load ptr, ptr %48, align 8, !tbaa !42
  %50 = load ptr, ptr %4, align 8, !tbaa !16
  %51 = getelementptr inbounds nuw %struct.DTS2PTSContext, ptr %50, i32 0, i32 5
  store ptr %49, ptr %51, align 8, !tbaa !43
  %52 = load i32, ptr %6, align 4, !tbaa !20
  %53 = sext i32 %52 to i64
  %54 = getelementptr inbounds [1 x %struct.anon], ptr @func_tab, i64 0, i64 %53
  %55 = getelementptr inbounds nuw %struct.anon, ptr %54, i32 0, i32 4
  %56 = load i64, ptr %55, align 8, !tbaa !44
  %57 = load ptr, ptr %4, align 8, !tbaa !16
  %58 = getelementptr inbounds nuw %struct.DTS2PTSContext, ptr %57, i32 0, i32 6
  store i64 %56, ptr %58, align 8, !tbaa !45
  br label %63

59:                                               ; preds = %18
  br label %60

60:                                               ; preds = %59
  %61 = load i32, ptr %6, align 4, !tbaa !20
  %62 = add nsw i32 %61, 1
  store i32 %62, ptr %6, align 4, !tbaa !20
  br label %14, !llvm.loop !46

63:                                               ; preds = %30, %14
  %64 = load i32, ptr %6, align 4, !tbaa !20
  %65 = sext i32 %64 to i64
  %66 = icmp eq i64 %65, 1
  br i1 %66, label %67, label %68

67:                                               ; preds = %63
  store i32 -558323010, ptr %2, align 4
  store i32 1, ptr %8, align 4
  br label %156

68:                                               ; preds = %63
  br label %69

69:                                               ; preds = %68
  %70 = load ptr, ptr %4, align 8, !tbaa !16
  %71 = getelementptr inbounds nuw %struct.DTS2PTSContext, ptr %70, i32 0, i32 4
  %72 = load ptr, ptr %71, align 8, !tbaa !41
  %73 = icmp ne ptr %72, null
  br i1 %73, label %74, label %79

74:                                               ; preds = %69
  %75 = load ptr, ptr %4, align 8, !tbaa !16
  %76 = getelementptr inbounds nuw %struct.DTS2PTSContext, ptr %75, i32 0, i32 6
  %77 = load i64, ptr %76, align 8, !tbaa !45
  %78 = icmp ne i64 %77, 0
  br i1 %78, label %80, label %79

79:                                               ; preds = %74, %69
  call void (ptr, i32, ptr, ...) @av_log(ptr noundef null, i32 noundef 0, ptr noundef @.str.1, ptr noundef @.str.2, ptr noundef @.str.3, i32 noundef 393)
  call void @abort() #8
  unreachable

80:                                               ; preds = %74
  br label %81

81:                                               ; preds = %80
  br label %82

82:                                               ; preds = %81
  %83 = load ptr, ptr %4, align 8, !tbaa !16
  %84 = getelementptr inbounds nuw %struct.DTS2PTSContext, ptr %83, i32 0, i32 6
  %85 = load i64, ptr %84, align 8, !tbaa !45
  %86 = call ptr @av_fifo_alloc2(i64 noundef %85, i64 noundef 24, i32 noundef 0)
  %87 = load ptr, ptr %4, align 8, !tbaa !16
  %88 = getelementptr inbounds nuw %struct.DTS2PTSContext, ptr %87, i32 0, i32 1
  store ptr %86, ptr %88, align 8, !tbaa !48
  %89 = load ptr, ptr %4, align 8, !tbaa !16
  %90 = getelementptr inbounds nuw %struct.DTS2PTSContext, ptr %89, i32 0, i32 1
  %91 = load ptr, ptr %90, align 8, !tbaa !48
  %92 = icmp ne ptr %91, null
  br i1 %92, label %94, label %93

93:                                               ; preds = %82
  store i32 -12, ptr %2, align 4
  store i32 1, ptr %8, align 4
  br label %156

94:                                               ; preds = %82
  %95 = call ptr @av_refstruct_pool_alloc(i64 noundef 24, i32 noundef 1)
  %96 = load ptr, ptr %4, align 8, !tbaa !16
  %97 = getelementptr inbounds nuw %struct.DTS2PTSContext, ptr %96, i32 0, i32 2
  store ptr %95, ptr %97, align 8, !tbaa !49
  %98 = load ptr, ptr %4, align 8, !tbaa !16
  %99 = getelementptr inbounds nuw %struct.DTS2PTSContext, ptr %98, i32 0, i32 2
  %100 = load ptr, ptr %99, align 8, !tbaa !49
  %101 = icmp ne ptr %100, null
  br i1 %101, label %103, label %102

102:                                              ; preds = %94
  store i32 -12, ptr %2, align 4
  store i32 1, ptr %8, align 4
  br label %156

103:                                              ; preds = %94
  %104 = load ptr, ptr %4, align 8, !tbaa !16
  %105 = getelementptr inbounds nuw %struct.DTS2PTSContext, ptr %104, i32 0, i32 7
  %106 = load ptr, ptr %3, align 8, !tbaa !4
  %107 = getelementptr inbounds nuw %struct.AVBSFContext, ptr %106, i32 0, i32 3
  %108 = load ptr, ptr %107, align 8, !tbaa !24
  %109 = getelementptr inbounds nuw %struct.AVCodecParameters, ptr %108, i32 0, i32 1
  %110 = load i32, ptr %109, align 4, !tbaa !25
  %111 = load ptr, ptr %3, align 8, !tbaa !4
  %112 = call i32 @ff_cbs_init(ptr noundef %105, i32 noundef %110, ptr noundef %111)
  store i32 %112, ptr %7, align 4, !tbaa !20
  %113 = load i32, ptr %7, align 4, !tbaa !20
  %114 = icmp slt i32 %113, 0
  br i1 %114, label %115, label %117

115:                                              ; preds = %103
  %116 = load i32, ptr %7, align 4, !tbaa !20
  store i32 %116, ptr %2, align 4
  store i32 1, ptr %8, align 4
  br label %156

117:                                              ; preds = %103
  %118 = load ptr, ptr %4, align 8, !tbaa !16
  %119 = getelementptr inbounds nuw %struct.DTS2PTSContext, ptr %118, i32 0, i32 3
  %120 = load ptr, ptr %119, align 8, !tbaa !31
  %121 = icmp ne ptr %120, null
  br i1 %121, label %122, label %133

122:                                              ; preds = %117
  %123 = load ptr, ptr %4, align 8, !tbaa !16
  %124 = getelementptr inbounds nuw %struct.DTS2PTSContext, ptr %123, i32 0, i32 3
  %125 = load ptr, ptr %124, align 8, !tbaa !31
  %126 = load ptr, ptr %3, align 8, !tbaa !4
  %127 = call i32 %125(ptr noundef %126)
  store i32 %127, ptr %7, align 4, !tbaa !20
  %128 = load i32, ptr %7, align 4, !tbaa !20
  %129 = icmp slt i32 %128, 0
  br i1 %129, label %130, label %132

130:                                              ; preds = %122
  %131 = load i32, ptr %7, align 4, !tbaa !20
  store i32 %131, ptr %2, align 4
  store i32 1, ptr %8, align 4
  br label %156

132:                                              ; preds = %122
  br label %133

133:                                              ; preds = %132, %117
  %134 = load ptr, ptr %3, align 8, !tbaa !4
  %135 = getelementptr inbounds nuw %struct.AVBSFContext, ptr %134, i32 0, i32 3
  %136 = load ptr, ptr %135, align 8, !tbaa !24
  %137 = getelementptr inbounds nuw %struct.AVCodecParameters, ptr %136, i32 0, i32 4
  %138 = load i32, ptr %137, align 8, !tbaa !50
  %139 = icmp ne i32 %138, 0
  br i1 %139, label %141, label %140

140:                                              ; preds = %133
  store i32 0, ptr %2, align 4
  store i32 1, ptr %8, align 4
  br label %156

141:                                              ; preds = %133
  %142 = load ptr, ptr %4, align 8, !tbaa !16
  %143 = getelementptr inbounds nuw %struct.DTS2PTSContext, ptr %142, i32 0, i32 7
  %144 = load ptr, ptr %143, align 8, !tbaa !51
  %145 = load ptr, ptr %5, align 8, !tbaa !18
  %146 = load ptr, ptr %3, align 8, !tbaa !4
  %147 = getelementptr inbounds nuw %struct.AVBSFContext, ptr %146, i32 0, i32 3
  %148 = load ptr, ptr %147, align 8, !tbaa !24
  %149 = call i32 @ff_cbs_read_extradata(ptr noundef %144, ptr noundef %145, ptr noundef %148)
  store i32 %149, ptr %7, align 4, !tbaa !20
  %150 = load i32, ptr %7, align 4, !tbaa !20
  %151 = icmp slt i32 %150, 0
  br i1 %151, label %152, label %154

152:                                              ; preds = %141
  %153 = load ptr, ptr %3, align 8, !tbaa !4
  call void (ptr, i32, ptr, ...) @av_log(ptr noundef %153, i32 noundef 24, ptr noundef @.str.4)
  br label %154

154:                                              ; preds = %152, %141
  %155 = load ptr, ptr %5, align 8, !tbaa !18
  call void @ff_cbs_fragment_reset(ptr noundef %155)
  store i32 0, ptr %2, align 4
  store i32 1, ptr %8, align 4
  br label %156

156:                                              ; preds = %154, %140, %130, %115, %102, %93, %67
  call void @llvm.lifetime.end.p0(i64 4, ptr %7) #7
  call void @llvm.lifetime.end.p0(i64 4, ptr %6) #7
  call void @llvm.lifetime.end.p0(i64 8, ptr %5) #7
  call void @llvm.lifetime.end.p0(i64 8, ptr %4) #7
  %157 = load i32, ptr %2, align 4
  ret i32 %157
}