; Function Attrs: nounwind uwtable
define internal range(i32 -2147483648, 1) i32 @dts2pts_init(ptr noundef %0) #0 {
.critedge52:
  %1 = getelementptr inbounds nuw i8, ptr %0, i64 16
  %2 = load ptr, ptr %1, align 8, !tbaa !4
  %3 = getelementptr inbounds nuw i8, ptr %2, i64 64
  %4 = getelementptr inbounds nuw i8, ptr %0, i64 24
  %5 = load ptr, ptr %4, align 8, !tbaa !14
  %6 = getelementptr inbounds nuw i8, ptr %5, i64 4
  %7 = load i32, ptr %6, align 4, !tbaa !15
  %8 = icmp eq i32 %7, 27
  br i1 %8, label %9, label %.critedge, !llvm.loop !21

9:                                                ; preds = %.critedge52
  %10 = getelementptr inbounds nuw i8, ptr %2, i64 24
  store ptr @h264_init, ptr %10, align 8, !tbaa !23
  %11 = getelementptr inbounds nuw i8, ptr %2, i64 32
  store ptr @h264_filter, ptr %11, align 8, !tbaa !32
  %12 = getelementptr inbounds nuw i8, ptr %2, i64 40
  store ptr @h264_flush, ptr %12, align 8, !tbaa !33
  %13 = getelementptr inbounds nuw i8, ptr %2, i64 48
  store i64 64, ptr %13, align 8, !tbaa !34
  %14 = tail call ptr @av_fifo_alloc2(i64 noundef 64, i64 noundef 24, i32 noundef 0) #9
  %15 = getelementptr inbounds nuw i8, ptr %2, i64 8
  store ptr %14, ptr %15, align 8, !tbaa !35
  %.not47 = icmp eq ptr %14, null
  br i1 %.not47, label %.critedge, label %16

16:                                               ; preds = %9
  %17 = tail call ptr @av_refstruct_pool_alloc(i64 noundef 24, i32 noundef 1) #9
  %18 = getelementptr inbounds nuw i8, ptr %2, i64 16
  store ptr %17, ptr %18, align 8, !tbaa !36
  %.not48 = icmp eq ptr %17, null
  br i1 %.not48, label %.critedge, label %19

19:                                               ; preds = %16
  %20 = getelementptr inbounds nuw i8, ptr %2, i64 56
  %21 = load ptr, ptr %4, align 8, !tbaa !14
  %22 = getelementptr inbounds nuw i8, ptr %21, i64 4
  %23 = load i32, ptr %22, align 4, !tbaa !15
  %24 = tail call i32 @ff_cbs_init(ptr noundef nonnull %20, i32 noundef %23, ptr noundef nonnull %0) #9
  %25 = icmp slt i32 %24, 0
  br i1 %25, label %.critedge, label %26

26:                                               ; preds = %19
  %27 = load ptr, ptr %10, align 8, !tbaa !23
  %.not49 = icmp eq ptr %27, null
  br i1 %.not49, label %31, label %28

28:                                               ; preds = %26
  %29 = tail call i32 %27(ptr noundef nonnull %0) #9
  %30 = icmp slt i32 %29, 0
  br i1 %30, label %.critedge, label %31

31:                                               ; preds = %28, %26
  %32 = load ptr, ptr %4, align 8, !tbaa !14
  %33 = getelementptr inbounds nuw i8, ptr %32, i64 24
  %34 = load i32, ptr %33, align 8, !tbaa !37
  %.not50 = icmp eq i32 %34, 0
  br i1 %.not50, label %.critedge, label %35

35:                                               ; preds = %31
  %36 = load ptr, ptr %20, align 8, !tbaa !38
  %37 = tail call i32 @ff_cbs_read_extradata(ptr noundef %36, ptr noundef nonnull %3, ptr noundef nonnull %32) #9
  %38 = icmp slt i32 %37, 0
  br i1 %38, label %39, label %40

39:                                               ; preds = %35
  tail call void (ptr, i32, ptr, ...) @av_log(ptr noundef nonnull %0, i32 noundef 24, ptr noundef nonnull @.str.4) #9
  br label %40

40:                                               ; preds = %39, %35
  tail call void @ff_cbs_fragment_reset(ptr noundef nonnull %3) #9
  br label %.critedge

.critedge:                                        ; preds = %.critedge52, %31, %28, %19, %16, %9, %40
  %.039 = phi i32 [ 0, %40 ], [ -12, %9 ], [ -12, %16 ], [ %24, %19 ], [ %29, %28 ], [ 0, %31 ], [ -558323010, %.critedge52 ]
  ret i32 %.039
}